target datalayout = "e-m:e-p270:32:32-p271:32:32-p272:64:64-i64:64-i128:128-f80:128-n8:16:32:64-S128"
target triple = "x86_64-pc-linux-gnu"

%struct._zval_struct = type { %union._zend_value, %union.anon, %union.anon.2 }
%union._zend_value = type { i64 }
%union.anon = type { i32 }
%union.anon.2 = type { i32 }
%struct._zend_refcounted_h = type { i32, %union.anon.3 }
%union.anon.3 = type { i32 }
%struct._zend_string = type { %struct._zend_refcounted_h, i64, i64, [1 x i8] }

@.str.3 = private unnamed_addr constant [36 x i8] c"Number %s is too big to fit in long\00", align 1

; Function Attrs: nounwind uwtable
define i64 @_php_math_basetolong(ptr noundef %0, i32 noundef %1) #0 {
  %3 = alloca ptr, align 8
  %4 = alloca i64, align 8
  %5 = alloca ptr, align 8
  %6 = alloca i32, align 4
  %7 = alloca i64, align 8
  %8 = alloca i64, align 8
  %9 = alloca i64, align 8
  %10 = alloca i64, align 8
  %11 = alloca i8, align 1
  %12 = alloca ptr, align 8
  store ptr %0, ptr %5, align 8
  store i32 %1, ptr %6, align 4
  store i64 0, ptr %7, align 8
  %13 = load ptr, ptr %5, align 8
  store ptr %13, ptr %3, align 8
  %14 = load ptr, ptr %3, align 8
  %15 = getelementptr inbounds %struct._zval_struct, ptr %14, i32 0, i32 1
  %16 = load i8, ptr %15, align 8
  %17 = zext i8 %16 to i32
  %18 = icmp ne i32 %17, 6
  br i1 %18, label %25, label %19

19:                                               ; preds = %2
  %20 = load i32, ptr %6, align 4
  %21 = icmp slt i32 %20, 2
  br i1 %21, label %25, label %22

22:                                               ; preds = %19
  %23 = load i32, ptr %6, align 4
  %24 = icmp sgt i32 %23, 36
  br i1 %24, label %25, label %26

25:                                               ; preds = %22, %19, %2
  store i64 0, ptr %4, align 8
  br label %114

26:                                               ; preds = %22
  %27 = load ptr, ptr %5, align 8
  %28 = getelementptr inbounds %struct._zval_struct, ptr %27, i32 0, i32 0
  %29 = load ptr, ptr %28, align 8
  %30 = getelementptr inbounds %struct._zend_string, ptr %29, i32 0, i32 3
  %31 = getelementptr inbounds [1 x i8], ptr %30, i64 0, i64 0
  store ptr %31, ptr %12, align 8
  %32 = load ptr, ptr %5, align 8
  %33 = getelementptr inbounds %struct._zval_struct, ptr %32, i32 0, i32 0
  %34 = load ptr, ptr %33, align 8
  %35 = getelementptr inbounds %struct._zend_string, ptr %34, i32 0, i32 2
  %36 = load i64, ptr %35, align 8
  store i64 %36, ptr %10, align 8
  br label %37

37:                                               ; preds = %109, %26
  %38 = load i64, ptr %10, align 8
  %39 = icmp sgt i64 %38, 0
  br i1 %39, label %40, label %112

40:                                               ; preds = %37
  %41 = load ptr, ptr %12, align 8
  %42 = getelementptr inbounds i8, ptr %41, i32 1
  store ptr %42, ptr %12, align 8
  %43 = load i8, ptr %41, align 1
  store i8 %43, ptr %11, align 1
  %44 = load i8, ptr %11, align 1
  %45 = sext i8 %44 to i32
  %46 = icmp sge i32 %45, 48
  br i1 %46, label %47, label %55

47:                                               ; preds = %40
  %48 = load i8, ptr %11, align 1
  %49 = sext i8 %48 to i32
  %50 = icmp sle i32 %49, 57
  br i1 %50, label %51, label %55

51:                                               ; preds = %47
  %52 = load i8, ptr %11, align 1
  %53 = sext i8 %52 to i32
  %54 = sub nsw i32 %53, 48
  br label %87

55:                                               ; preds = %47, %40
  %56 = load i8, ptr %11, align 1
  %57 = sext i8 %56 to i32
  %58 = icmp sge i32 %57, 65
  br i1 %58, label %59, label %68

59:                                               ; preds = %55
  %60 = load i8, ptr %11, align 1
  %61 = sext i8 %60 to i32
  %62 = icmp sle i32 %61, 90
  br i1 %62, label %63, label %68

63:                                               ; preds = %59
  %64 = load i8, ptr %11, align 1
  %65 = sext i8 %64 to i32
  %66 = sub nsw i32 %65, 65
  %67 = add nsw i32 %66, 10
  br label %85

68:                                               ; preds = %59, %55
  %69 = load i8, ptr %11, align 1
  %70 = sext i8 %69 to i32
  %71 = icmp sge i32 %70, 97
  br i1 %71, label %72, label %81

72:                                               ; preds = %68
  %73 = load i8, ptr %11, align 1
  %74 = sext i8 %73 to i32
  %75 = icmp sle i32 %74, 122
  br i1 %75, label %76, label %81

76:                                               ; preds = %72
  %77 = load i8, ptr %11, align 1
  %78 = sext i8 %77 to i32
  %79 = sub nsw i32 %78, 97
  %80 = add nsw i32 %79, 10
  br label %83

81:                                               ; preds = %72, %68
  %82 = load i32, ptr %6, align 4
  br label %83

83:                                               ; preds = %81, %76
  %84 = phi i32 [ %80, %76 ], [ %82, %81 ]
  br label %85

85:                                               ; preds = %83, %63
  %86 = phi i32 [ %67, %63 ], [ %84, %83 ]
  br label %87

87:                                               ; preds = %85, %51
  %88 = phi i32 [ %54, %51 ], [ %86, %85 ]
  %89 = sext i32 %88 to i64
  store i64 %89, ptr %8, align 8
  %90 = load i64, ptr %8, align 8
  %91 = load i32, ptr %6, align 4
  %92 = sext i32 %91 to i64
  %93 = icmp sge i64 %90, %92
  br i1 %93, label %94, label %95

94:                                               ; preds = %87
  br label %109

95:                                               ; preds = %87
  %96 = load i64, ptr %7, align 8
  store i64 %96, ptr %9, align 8
  %97 = load i64, ptr %7, align 8
  %98 = load i32, ptr %6, align 4
  %99 = sext i32 %98 to i64
  %100 = mul nsw i64 %97, %99
  %101 = load i64, ptr %8, align 8
  %102 = add nsw i64 %100, %101
  store i64 %102, ptr %7, align 8
  %103 = load i64, ptr %7, align 8
  %104 = load i64, ptr %9, align 8
  %105 = icmp sgt i64 %103, %104
  br i1 %105, label %106, label %107

106:                                              ; preds = %95
  br label %109

107:                                              ; preds = %95
  %108 = load ptr, ptr %12, align 8
  call void (ptr, i32, ptr, ...) @php_error_docref(ptr noundef null, i32 noundef 2, ptr noundef @.str.3, ptr noundef %108)
  store i64 9223372036854775807, ptr %4, align 8
  br label %114

109:                                              ; preds = %106, %94
  %110 = load i64, ptr %10, align 8
  %111 = add nsw i64 %110, -1
  store i64 %111, ptr %10, align 8
  br label %37

112:                                              ; preds = %37
  %113 = load i64, ptr %7, align 8
  store i64 %113, ptr %4, align 8
  br label %114

114:                                              ; preds = %112, %107, %25
  %115 = load i64, ptr %4, align 8
  ret i64 %115
}