; Function Attrs: nounwind uwtable
define i64 @_php_math_basetolong(ptr nocapture noundef readonly %0, i32 noundef %1) local_unnamed_addr #0 {
  %3 = getelementptr inbounds i8, ptr %0, i64 8
  %4 = load i8, ptr %3, align 8
  %5 = icmp ne i8 %4, 6
  %6 = add i32 %1, -37
  %7 = icmp ult i32 %6, -35
  %or.cond3 = or i1 %7, %5
  br i1 %or.cond3, label %.loopexit, label %8

8:                                                ; preds = %2
  %9 = load ptr, ptr %0, align 8
  %10 = getelementptr inbounds i8, ptr %9, i64 16
  %11 = load i64, ptr %10, align 8
  %12 = icmp sgt i64 %11, 0
  br i1 %12, label %.lr.ph, label %.loopexit

.lr.ph:                                           ; preds = %8
  %13 = getelementptr inbounds i8, ptr %9, i64 24
  %14 = zext nneg i32 %1 to i64
  br label %15

15:                                               ; preds = %.lr.ph, %38
  %.052 = phi ptr [ %13, %.lr.ph ], [ %16, %38 ]
  %.04251 = phi i64 [ %11, %.lr.ph ], [ %39, %38 ]
  %.04350 = phi i64 [ 0, %.lr.ph ], [ %.1, %38 ]
  %16 = getelementptr inbounds i8, ptr %.052, i64 1
  %17 = load i8, ptr %.052, align 1
  %18 = sext i8 %17 to i32
  %19 = add i8 %17, -48
  %or.cond6 = icmp ult i8 %19, 10
  br i1 %or.cond6, label %20, label %22

20:                                               ; preds = %15
  %21 = add nsw i32 %18, -48
  br label %30

22:                                               ; preds = %15
  %23 = add i8 %17, -65
  %or.cond9 = icmp ult i8 %23, 26
  br i1 %or.cond9, label %24, label %26

24:                                               ; preds = %22
  %25 = add nsw i32 %18, -55
  br label %30

26:                                               ; preds = %22
  %27 = add i8 %17, -97
  %or.cond12 = icmp ult i8 %27, 26
  %28 = add nsw i32 %18, -87
  %29 = select i1 %or.cond12, i32 %28, i32 %1
  br label %30

30:                                               ; preds = %24, %26, %20
  %31 = phi i32 [ %21, %20 ], [ %25, %24 ], [ %29, %26 ]
  %.not = icmp slt i32 %31, %1
  br i1 %.not, label %32, label %38

32:                                               ; preds = %30
  %33 = sext i32 %31 to i64
  %34 = mul nsw i64 %.04350, %14
  %35 = add nsw i64 %34, %33
  %36 = icmp sgt i64 %35, %.04350
  br i1 %36, label %38, label %37

37:                                               ; preds = %32
  tail call void (ptr, i32, ptr, ...) @php_error_docref(ptr noundef null, i32 noundef 2, ptr noundef nonnull @.str.3, ptr noundef nonnull %16) #15
  br label %.loopexit

38:                                               ; preds = %32, %30
  %.1 = phi i64 [ %.04350, %30 ], [ %35, %32 ]
  %39 = add nsw i64 %.04251, -1
  %40 = icmp sgt i64 %.04251, 1
  br i1 %40, label %15, label %.loopexit

.loopexit:                                        ; preds = %38, %8, %2, %37
  %.041 = phi i64 [ 9223372036854775807, %37 ], [ 0, %2 ], [ 0, %8 ], [ %.1, %38 ]
  ret i64 %.041
}